target datalayout = "e-m:e-p270:32:32-p271:32:32-p272:64:64-i64:64-i128:128-f80:128-n8:16:32:64-S128"
target triple = "x86_64-pc-linux-gnu"

%struct.global_State = type { ptr, ptr, i64, i64, i64, i64, %struct.stringtable, %struct.TValue, %struct.TValue, i32, [6 x i8], i8, i8, i8, i8, i8, i8, ptr, ptr, ptr, ptr, ptr, ptr, ptr, ptr, ptr, ptr, ptr, ptr, ptr, ptr, ptr, ptr, ptr, ptr, ptr, ptr, ptr, [25 x ptr], [9 x ptr], [53 x [2 x ptr]], ptr, ptr }
%struct.stringtable = type { ptr, i32, i32 }
%struct.TValue = type { %union.Value, i8 }
%union.Value = type { ptr }
%struct.lua_State = type { ptr, i8, i8, i8, i8, i16, %union.StkIdRel, ptr, ptr, %union.StkIdRel, %union.StkIdRel, ptr, %union.StkIdRel, ptr, ptr, ptr, %struct.CallInfo, ptr, i64, i32, i32, i32, i32, i32, %struct.anon.2 }
%union.StkIdRel = type { ptr }
%struct.CallInfo = type { %union.StkIdRel, %union.StkIdRel, ptr, ptr, %union.anon, %union.anon.1, i32 }
%union.anon = type { %struct.anon.0 }
%struct.anon.0 = type { ptr, i64, i64 }
%union.anon.1 = type { i32 }
%struct.anon.2 = type { i32, i32 }
%union.StackValue = type { %struct.TValue }
%struct.TString = type { ptr, i8, i8, i8, i8, i32, %union.anon.3, ptr, ptr, ptr }
%union.anon.3 = type { i64 }

@.str.1 = private unnamed_addr constant [29 x i8] c"error object is not a string\00", align 1
@.str.2 = private unnamed_addr constant [10 x i8] c"error in \00", align 1
@.str.3 = private unnamed_addr constant [3 x i8] c" (\00", align 1
@.str.4 = private unnamed_addr constant [2 x i8] c")\00", align 1

; Function Attrs: nounwind uwtable
define hidden void @luaE_warning(ptr noundef %0, ptr noundef %1, i32 noundef %2) #0 {
  %4 = alloca ptr, align 8
  %5 = alloca ptr, align 8
  %6 = alloca i32, align 4
  %7 = alloca ptr, align 8
  store ptr %0, ptr %4, align 8, !tbaa !22
  store ptr %1, ptr %5, align 8, !tbaa !102
  store i32 %2, ptr %6, align 4, !tbaa !54
  call void @llvm.lifetime.start.p0(i64 8, ptr %7) #6
  %8 = load ptr, ptr %4, align 8, !tbaa !22
  %9 = getelementptr inbounds nuw %struct.lua_State, ptr %8, i32 0, i32 7
  %10 = load ptr, ptr %9, align 8, !tbaa !37
  %11 = getelementptr inbounds nuw %struct.global_State, ptr %10, i32 0, i32 41
  %12 = load ptr, ptr %11, align 8, !tbaa !68
  store ptr %12, ptr %7, align 8, !tbaa !58
  %13 = load ptr, ptr %7, align 8, !tbaa !58
  %14 = icmp ne ptr %13, null
  br i1 %14, label %15, label %24

15:                                               ; preds = %3
  %16 = load ptr, ptr %7, align 8, !tbaa !58
  %17 = load ptr, ptr %4, align 8, !tbaa !22
  %18 = getelementptr inbounds nuw %struct.lua_State, ptr %17, i32 0, i32 7
  %19 = load ptr, ptr %18, align 8, !tbaa !37
  %20 = getelementptr inbounds nuw %struct.global_State, ptr %19, i32 0, i32 42
  %21 = load ptr, ptr %20, align 8, !tbaa !69
  %22 = load ptr, ptr %5, align 8, !tbaa !102
  %23 = load i32, ptr %6, align 4, !tbaa !54
  call void %16(ptr noundef %21, ptr noundef %22, i32 noundef %23)
  br label %24

24:                                               ; preds = %15, %3
  call void @llvm.lifetime.end.p0(i64 8, ptr %7) #6
  ret void
}

; Function Attrs: nounwind uwtable
define hidden void @luaE_warnerror(ptr noundef %0, ptr noundef %1) #0 {
  %3 = alloca ptr, align 8
  %4 = alloca ptr, align 8
  %5 = alloca ptr, align 8
  %6 = alloca ptr, align 8
  store ptr %0, ptr %3, align 8, !tbaa !22
  store ptr %1, ptr %4, align 8, !tbaa !102
  call void @llvm.lifetime.start.p0(i64 8, ptr %5) #6
  %7 = load ptr, ptr %3, align 8, !tbaa !22
  %8 = getelementptr inbounds nuw %struct.lua_State, ptr %7, i32 0, i32 6
  %9 = load ptr, ptr %8, align 8, !tbaa !34
  %10 = getelementptr inbounds %union.StackValue, ptr %9, i64 -1
  store ptr %10, ptr %5, align 8, !tbaa !39
  call void @llvm.lifetime.start.p0(i64 8, ptr %6) #6
  %11 = load ptr, ptr %5, align 8, !tbaa !39
  %12 = getelementptr inbounds nuw %struct.TValue, ptr %11, i32 0, i32 1
  %13 = load i8, ptr %12, align 8, !tbaa !41
  %14 = zext i8 %13 to i32
  %15 = and i32 %14, 15
  %16 = icmp eq i32 %15, 4
  br i1 %16, label %17, label %38

17:                                               ; preds = %2
  %18 = load ptr, ptr %5, align 8, !tbaa !39
  %19 = getelementptr inbounds nuw %struct.TValue, ptr %18, i32 0, i32 0
  %20 = load ptr, ptr %19, align 8, !tbaa !34
  %21 = getelementptr inbounds nuw %struct.TString, ptr %20, i32 0, i32 4
  %22 = load i8, ptr %21, align 1, !tbaa !104
  %23 = sext i8 %22 to i32
  %24 = icmp sge i32 %23, 0
  br i1 %24, label %25, label %30

25:                                               ; preds = %17
  %26 = load ptr, ptr %5, align 8, !tbaa !39
  %27 = getelementptr inbounds nuw %struct.TValue, ptr %26, i32 0, i32 0
  %28 = load ptr, ptr %27, align 8, !tbaa !34
  %29 = getelementptr inbounds nuw %struct.TString, ptr %28, i32 0, i32 7
  br label %36

30:                                               ; preds = %17
  %31 = load ptr, ptr %5, align 8, !tbaa !39
  %32 = getelementptr inbounds nuw %struct.TValue, ptr %31, i32 0, i32 0
  %33 = load ptr, ptr %32, align 8, !tbaa !34
  %34 = getelementptr inbounds nuw %struct.TString, ptr %33, i32 0, i32 7
  %35 = load ptr, ptr %34, align 8, !tbaa !106
  br label %36

36:                                               ; preds = %30, %25
  %37 = phi ptr [ %29, %25 ], [ %35, %30 ]
  br label %39

38:                                               ; preds = %2
  br label %39

39:                                               ; preds = %38, %36
  %40 = phi ptr [ %37, %36 ], [ @.str.1, %38 ]
  store ptr %40, ptr %6, align 8, !tbaa !102
  %41 = load ptr, ptr %3, align 8, !tbaa !22
  call void @luaE_warning(ptr noundef %41, ptr noundef @.str.2, i32 noundef 1)
  %42 = load ptr, ptr %3, align 8, !tbaa !22
  %43 = load ptr, ptr %4, align 8, !tbaa !102
  call void @luaE_warning(ptr noundef %42, ptr noundef %43, i32 noundef 1)
  %44 = load ptr, ptr %3, align 8, !tbaa !22
  call void @luaE_warning(ptr noundef %44, ptr noundef @.str.3, i32 noundef 1)
  %45 = load ptr, ptr %3, align 8, !tbaa !22
  %46 = load ptr, ptr %6, align 8, !tbaa !102
  call void @luaE_warning(ptr noundef %45, ptr noundef %46, i32 noundef 1)
  %47 = load ptr, ptr %3, align 8, !tbaa !22
  call void @luaE_warning(ptr noundef %47, ptr noundef @.str.4, i32 noundef 0)
  call void @llvm.lifetime.end.p0(i64 8, ptr %6) #6
  call void @llvm.lifetime.end.p0(i64 8, ptr %5) #6
  ret void
}