; Function Attrs: nounwind uwtable
define hidden void @luaE_warnerror(ptr noundef readonly captures(none) %0, ptr noundef %1) local_unnamed_addr #2 {
  %3 = getelementptr inbounds nuw i8, ptr %0, i64 16
  %4 = load ptr, ptr %3, align 8, !tbaa !30
  %5 = getelementptr inbounds i8, ptr %4, i64 -8
  %6 = load i8, ptr %5, align 8, !tbaa !35
  %7 = and i8 %6, 15
  %8 = icmp eq i8 %7, 4
  br i1 %8, label %9, label %18

9:                                                ; preds = %2
  %10 = getelementptr inbounds i8, ptr %4, i64 -16
  %11 = load ptr, ptr %10, align 8, !tbaa !30
  %12 = getelementptr inbounds nuw i8, ptr %11, i64 11
  %13 = load i8, ptr %12, align 1, !tbaa !71
  %14 = icmp sgt i8 %13, -1
  %15 = getelementptr inbounds nuw i8, ptr %11, i64 24
  br i1 %14, label %18, label %16

16:                                               ; preds = %9
  %17 = load ptr, ptr %15, align 8, !tbaa !74
  br label %18

18:                                               ; preds = %9, %2, %16
  %19 = phi ptr [ %17, %16 ], [ @.str.1, %2 ], [ %15, %9 ]
  %20 = getelementptr inbounds nuw i8, ptr %0, i64 24
  %21 = load ptr, ptr %20, align 8, !tbaa !34
  %22 = getelementptr inbounds nuw i8, ptr %21, i64 1400
  %23 = load ptr, ptr %22, align 8, !tbaa !69
  %.not.i = icmp eq ptr %23, null
  br i1 %.not.i, label %luaE_warning.exit19, label %luaE_warning.exit

luaE_warning.exit:                                ; preds = %18
  %24 = getelementptr inbounds nuw i8, ptr %21, i64 1408
  %25 = load ptr, ptr %24, align 8, !tbaa !70
  tail call void %23(ptr noundef %25, ptr noundef nonnull @.str.2, i32 noundef 1) #8
  %.pre = load ptr, ptr %20, align 8, !tbaa !34
  %.phi.trans.insert = getelementptr inbounds nuw i8, ptr %.pre, i64 1400
  %.pre20 = load ptr, ptr %.phi.trans.insert, align 8, !tbaa !69
  %.not.i12 = icmp eq ptr %.pre20, null
  br i1 %.not.i12, label %luaE_warning.exit19, label %luaE_warning.exit13

luaE_warning.exit13:                              ; preds = %luaE_warning.exit
  %26 = getelementptr inbounds nuw i8, ptr %.pre, i64 1408
  %27 = load ptr, ptr %26, align 8, !tbaa !70
  tail call void %.pre20(ptr noundef %27, ptr noundef %1, i32 noundef 1) #8
  %.pre21 = load ptr, ptr %20, align 8, !tbaa !34
  %.phi.trans.insert22 = getelementptr inbounds nuw i8, ptr %.pre21, i64 1400
  %.pre23 = load ptr, ptr %.phi.trans.insert22, align 8, !tbaa !69
  %.not.i14 = icmp eq ptr %.pre23, null
  br i1 %.not.i14, label %luaE_warning.exit19, label %luaE_warning.exit15

luaE_warning.exit15:                              ; preds = %luaE_warning.exit13
  %28 = getelementptr inbounds nuw i8, ptr %.pre21, i64 1408
  %29 = load ptr, ptr %28, align 8, !tbaa !70
  tail call void %.pre23(ptr noundef %29, ptr noundef nonnull @.str.3, i32 noundef 1) #8
  %.pre24 = load ptr, ptr %20, align 8, !tbaa !34
  %.phi.trans.insert25 = getelementptr inbounds nuw i8, ptr %.pre24, i64 1400
  %.pre26 = load ptr, ptr %.phi.trans.insert25, align 8, !tbaa !69
  %.not.i16 = icmp eq ptr %.pre26, null
  br i1 %.not.i16, label %luaE_warning.exit19, label %luaE_warning.exit17

luaE_warning.exit17:                              ; preds = %luaE_warning.exit15
  %30 = getelementptr inbounds nuw i8, ptr %.pre24, i64 1408
  %31 = load ptr, ptr %30, align 8, !tbaa !70
  tail call void %.pre26(ptr noundef %31, ptr noundef %19, i32 noundef 1) #8
  %.pre27 = load ptr, ptr %20, align 8, !tbaa !34
  %.phi.trans.insert28 = getelementptr inbounds nuw i8, ptr %.pre27, i64 1400
  %.pre29 = load ptr, ptr %.phi.trans.insert28, align 8, !tbaa !69
  %.not.i18 = icmp eq ptr %.pre29, null
  br i1 %.not.i18, label %luaE_warning.exit19, label %32

32:                                               ; preds = %luaE_warning.exit17
  %33 = getelementptr inbounds nuw i8, ptr %.pre27, i64 1408
  %34 = load ptr, ptr %33, align 8, !tbaa !70
  tail call void %.pre29(ptr noundef %34, ptr noundef nonnull @.str.4, i32 noundef 0) #8
  br label %luaE_warning.exit19

luaE_warning.exit19:                              ; preds = %18, %luaE_warning.exit, %luaE_warning.exit13, %luaE_warning.exit15, %luaE_warning.exit17, %32
  ret void
}